target datalayout = "e-m:e-p270:32:32-p271:32:32-p272:64:64-i64:64-i128:128-f80:128-n8:16:32:64-S128"
target triple = "x86_64-pc-linux-gnu"

%"class.vcg::PerViewData" = type { %"class.std::bitset", %"class.std::vector.16", ptr }
%"class.std::bitset" = type { %"struct.std::_Base_bitset" }
%"struct.std::_Base_bitset" = type { i64 }
%"class.std::vector.16" = type { %"struct.std::_Vector_base.17" }
%"struct.std::_Vector_base.17" = type { %"struct.std::_Vector_base<vcg::GLMeshAttributesInfo::InternalRendAtts, std::allocator<vcg::GLMeshAttributesInfo::InternalRendAtts>>::_Vector_impl" }
%"struct.std::_Vector_base<vcg::GLMeshAttributesInfo::InternalRendAtts, std::allocator<vcg::GLMeshAttributesInfo::InternalRendAtts>>::_Vector_impl" = type { %"struct.std::_Vector_base<vcg::GLMeshAttributesInfo::InternalRendAtts, std::allocator<vcg::GLMeshAttributesInfo::InternalRendAtts>>::_Vector_impl_data" }
%"struct.std::_Vector_base<vcg::GLMeshAttributesInfo::InternalRendAtts, std::allocator<vcg::GLMeshAttributesInfo::InternalRendAtts>>::_Vector_impl_data" = type { ptr, ptr, ptr }

; Function Attrs: mustprogress uwtable
define linkonce_odr void @_ZN3vcg11PerViewDataI18MLPerViewGLOptionsE3setERKS1_(ptr noundef nonnull align 8 dereferenceable(40) %0, ptr noundef nonnull align 8 dereferenceable(90) %1) #5 comdat align 2 personality ptr @__gxx_personality_v0 {
  %3 = alloca ptr, align 8
  %4 = alloca ptr, align 8
  %5 = alloca ptr, align 8
  %6 = alloca i32, align 4
  store ptr %0, ptr %3, align 8
  store ptr %1, ptr %4, align 8
  %7 = load ptr, ptr %3, align 8
  %8 = getelementptr inbounds %"class.vcg::PerViewData", ptr %7, i32 0, i32 2
  %9 = load ptr, ptr %8, align 8
  %10 = icmp eq ptr %9, null
  br i1 %10, label %15, label %11

11:                                               ; preds = %2
  %12 = load ptr, ptr %9, align 8
  %13 = getelementptr inbounds ptr, ptr %12, i64 1
  %14 = load ptr, ptr %13, align 8
  call void %14(ptr noundef nonnull align 8 dereferenceable(90) %9) #3
  br label %15

15:                                               ; preds = %11, %2
  %16 = call noalias noundef nonnull ptr @_Znwm(i64 noundef 96) #15
  %17 = load ptr, ptr %4, align 8
  invoke void @_ZN18MLPerViewGLOptionsC2ERKS_(ptr noundef nonnull align 8 dereferenceable(90) %16, ptr noundef nonnull align 8 dereferenceable(90) %17)
          to label %18 unwind label %20

18:                                               ; preds = %15
  %19 = getelementptr inbounds %"class.vcg::PerViewData", ptr %7, i32 0, i32 2
  store ptr %16, ptr %19, align 8
  ret void

20:                                               ; preds = %15
  %21 = landingpad { ptr, i32 }
          cleanup
  %22 = extractvalue { ptr, i32 } %21, 0
  store ptr %22, ptr %5, align 8
  %23 = extractvalue { ptr, i32 } %21, 1
  store i32 %23, ptr %6, align 4
  call void @_ZdlPv(ptr noundef %16) #16
  br label %24

24:                                               ; preds = %20
  %25 = load ptr, ptr %5, align 8
  %26 = load i32, ptr %6, align 4
  %27 = insertvalue { ptr, i32 } poison, ptr %25, 0
  %28 = insertvalue { ptr, i32 } %27, i32 %26, 1
  resume { ptr, i32 } %28
}

; Function Attrs: mustprogress uwtable
define void @_ZN15MLRenderingData3setERK18MLPerViewGLOptions(ptr noundef nonnull align 8 dereferenceable(40) %0, ptr noundef nonnull align 8 dereferenceable(90) %1) #5 align 2 {
  %3 = alloca ptr, align 8
  %4 = alloca ptr, align 8
  store ptr %0, ptr %3, align 8
  store ptr %1, ptr %4, align 8
  %5 = load ptr, ptr %3, align 8
  %6 = load ptr, ptr %4, align 8
  call void @_ZN3vcg11PerViewDataI18MLPerViewGLOptionsE3setERKS1_(ptr noundef nonnull align 8 dereferenceable(40) %5, ptr noundef nonnull align 8 dereferenceable(90) %6)
  ret void
}