; Function Attrs: mustprogress uwtable
define void @_ZN15MLRenderingData3setERK18MLPerViewGLOptions(ptr nocapture noundef nonnull align 8 dereferenceable(40) %0, ptr noundef nonnull align 8 dereferenceable(90) %1) local_unnamed_addr #9 align 2 personality ptr @__gxx_personality_v0 {
  %3 = getelementptr inbounds i8, ptr %0, i64 32
  %4 = load ptr, ptr %3, align 8
  %5 = icmp eq ptr %4, null
  br i1 %5, label %10, label %6

6:                                                ; preds = %2
  %7 = load ptr, ptr %4, align 8
  %8 = getelementptr inbounds i8, ptr %7, i64 8
  %9 = load ptr, ptr %8, align 8
  tail call void %9(ptr noundef nonnull align 8 dereferenceable(90) %4) #22
  br label %10

10:                                               ; preds = %6, %2
  %11 = tail call noalias noundef nonnull dereferenceable(96) ptr @_Znwm(i64 noundef 96) #25
  invoke void @_ZN18MLPerViewGLOptionsC2ERKS_(ptr noundef nonnull align 8 dereferenceable(90) %11, ptr noundef nonnull align 8 dereferenceable(90) %1)
          to label %_ZN3vcg11PerViewDataI18MLPerViewGLOptionsE3setERKS1_.exit unwind label %12

12:                                               ; preds = %10
  %13 = landingpad { ptr, i32 }
          cleanup
  tail call void @_ZdlPv(ptr noundef nonnull %11) #21
  resume { ptr, i32 } %13

_ZN3vcg11PerViewDataI18MLPerViewGLOptionsE3setERKS1_.exit: ; preds = %10
  store ptr %11, ptr %3, align 8
  ret void
}